(lp0
(dp1
S'0-1-0'
p2
S'21'
p3
sS'0-1-1'
p4
S'71'
p5
sS'114-3-2'
p6
S'@3'
p7
sS'114-3-0'
p8
S'C3'
p9
sS'119-1-1'
p10
S'@1'
p11
sS'119-1-0'
p12
S'E1'
p13
sS'69-3-2'
p14
S'w3'
p15
sS'31-3-0'
p16
S'.3'
p17
sS'31-3-2'
p18
S'-3'
p19
sS'25-2-0'
p20
S')2'
p21
sS'6-1-0'
p22
S'41'
p23
sS'25-1-0'
p24
S'+1'
p25
sS'25-1-1'
p26
S'.1'
p27
sS'5-1-1'
p28
S'21'
p29
sS'5-1-0'
p30
S'71'
p31
sS'21-3-2'
p32
S"'3"
p33
sS'27-3-0'
p34
S'*3'
p35
sS'22-1-1'
p36
S'!1'
p37
sS'22-1-0'
p38
S'$1'
p39
sS'74-2-0'
p40
S'z2'
p41
sS'108-3-2'
p42
S'^3'
p43
sS'22-2-0'
p44
S'&2'
p45
sS'21-3-0'
p46
S'$3'
p47
sS'118-2-0'
p48
S'F2'
p49
sS'77-1-1'
p50
S'z1'
p51
sS'96-3-0'
p52
S'Q3'
p53
sS'96-3-2'
p54
S'R3'
p55
sS'18-2-0'
p56
S'"2'
p57
sS'23-2-0'
p58
S"'2"
p59
sS'75-2-0'
p60
S'{2'
p61
sS'117-1-1'
p62
S'B1'
p63
sS'117-1-0'
p64
S'G1'
p65
sS'117-3-0'
p66
S'D3'
p67
sS'117-3-2'
p68
S'G3'
p69
sS'95-3-2'
p70
S'm3'
p71
sS'77-2-0'
p72
S'}2'
p73
sS'95-3-0'
p74
S'n3'
p75
sS'15-3-2'
p76
S'=3'
p77
sS'15-3-0'
p78
S'>3'
p79
sS'119-2-0'
p80
S'G2'
p81
sS'79-3-0'
p82
S'~3'
p83
sS'79-3-2'
p84
S'}3'
p85
sS'76-3-2'
p86
S'~3'
p87
sS'75-1-1'
p88
S'|1'
p89
sS'75-1-0'
p90
S'y1'
p91
sS'87-1-1'
p92
S'`1'
p93
sS'64-3-2'
p94
S'r3'
p95
sS'64-3-0'
p96
S'q3'
p97
sS'14-3-2'
p98
S'<3'
p99
sS'76-3-0'
p100
S'}3'
p101
sS'110-2-0'
p102
S'^2'
p103
sS'122-2-0'
p104
S'J2'
p105
sS'28-3-2'
p106
S'.3'
p107
sS'28-3-0'
p108
S'-3'
p109
sS'121-1-0'
p110
S'K1'
p111
sS'121-1-1'
p112
S'N1'
p113
sS'10-1-1'
p114
S'=1'
p115
sS'18-1-0'
p116
S' 1'
p117
sS'18-1-1'
p118
S'%1'
p119
sS'8-1-0'
p120
S':1'
p121
sS'123-2-0'
p122
S'K2'
p123
sS'5-3-0'
p124
S'43'
p125
sS'19-1-0'
p126
S'!1'
p127
sS'72-1-0'
p128
S'z1'
p129
sS'8-2-0'
p130
S'82'
p131
sS'94-2-0'
p132
S'n2'
p133
sS'1-1-1'
p134
S'61'
p135
sS'1-1-0'
p136
S'31'
p137
sS'12-3-0'
p138
S'=3'
p139
sS'31-1-1'
p140
S'(1'
p141
sS'31-1-0'
p142
S'-1'
p143
sS'12-3-2'
p144
S'>3'
p145
sS'31-2-0'
p146
S'/2'
p147
sS'94-1-0'
p148
S'l1'
p149
sS'123-1-0'
p150
S'I1'
p151
sS'123-1-1'
p152
S'L1'
p153
sS'110-1-0'
p154
S'\\1'
p155
sS'110-1-1'
p156
S'Y1'
p157
sS'9-2-0'
p158
S'92'
p159
sS'77-3-0'
p160
S'|3'
p161
sS'81-1-0'
p162
S'c1'
p163
sS'81-1-1'
p164
S'f1'
p165
sS'80-3-0'
p166
S'a3'
p167
sS'80-3-2'
p168
S'b3'
p169
sS'23-3-0'
p170
S'&3'
p171
sS'23-3-2'
p172
S'%3'
p173
sS'9-1-1'
p174
S'>1'
p175
sS'9-1-0'
p176
S';1'
p177
sS'111-1-0'
p178
S']1'
p179
sS'85-3-0'
p180
S'd3'
p181
sS'105-3-2'
p182
S'[3'
p183
sS'79-1-1'
p184
S'x1'
p185
sS'79-1-0'
p186
S'}1'
p187
sS'58-3-0'
p188
S'\x0b3'
p189
sS'27-3-2'
p190
S')3'
p191
sS'1-2-0'
p192
S'12'
p193
sS'81-2-0'
p194
S'a2'
p195
sS'74-1-0'
p196
S'x1'
p197
sS'74-1-1'
p198
S'}1'
p199
sS'74-3-0'
p200
S'{3'
p201
sS'74-3-2'
p202
S'x3'
p203
sS'118-3-2'
p204
S'D3'
p205
sS'118-3-0'
p206
S'G3'
p207
sS'121-3-2'
p208
S'K3'
p209
sS'121-3-0'
p210
S'H3'
p211
sS'78-2-0'
p212
S'~2'
p213
sS'78-1-0'
p214
S'|1'
p215
sS'78-1-1'
p216
S'y1'
p217
sS'98-3-2'
p218
S'P3'
p219
sS'98-3-0'
p220
S'S3'
p221
sS'73-2-0'
p222
S'y2'
p223
sS'82-1-1'
p224
S'e1'
p225
sS'82-1-0'
p226
S'`1'
p227
sS'21-1-0'
p228
S"'1"
p229
sS'21-1-1'
p230
S'"1'
p231
sS'110-3-2'
p232
S'\\3'
p233
sS'66-3-0'
p234
S's3'
p235
sS'122-1-1'
p236
S'M1'
p237
sS'66-3-2'
p238
S'p3'
p239
sS'88-3-0'
p240
S'i3'
p241
sS'122-3-2'
p242
S'H3'
p243
sS'21-2-0'
p244
S'%2'
p245
sS'82-2-0'
p246
S'b2'
p247
sS'61-3-0'
p248
S'\x0c3'
p249
sS'20-1-1'
p250
S'#1'
p251
sS'20-1-0'
p252
S'&1'
p253
sS'80-1-1'
p254
S'g1'
p255
sS'80-1-0'
p256
S'b1'
p257
sS'20-2-0'
p258
S'$2'
p259
sS'80-2-0'
p260
S'`2'
p261
sS'9-3-2'
p262
S';3'
p263
sS'9-3-0'
p264
S'83'
p265
sS'58-1-1'
p266
S'\r1'
p267
sS'114-1-1'
p268
S'E1'
p269
sS'73-1-1'
p270
S'~1'
p271
sS'73-1-0'
p272
S'{1'
p273
sS'58-2-0'
p274
S'\n2'
p275
sS'13-3-0'
p276
S'<3'
p277
sS'125-2-0'
p278
S'M2'
p279
sS'59-1-1'
p280
S'\x0c1'
p281
sS'59-1-0'
p282
S'\t1'
p283
sS'65-3-2'
p284
S's3'
p285
sS'65-3-0'
p286
S'p3'
p287
sS'1-3-2'
p288
S'33'
p289
sS'59-2-0'
p290
S'\x0b2'
p291
sS'1-3-0'
p292
S'03'
p293
sS'61-2-0'
p294
S'\r2'
p295
sS'61-1-1'
p296
S'\n1'
p297
sS'109-3-0'
p298
S'\\3'
p299
sS'82-3-0'
p300
S'c3'
p301
sS'81-3-0'
p302
S'`3'
p303
sS'81-3-2'
p304
S'c3'
p305
sS'109-3-2'
p306
S'_3'
p307
sS'67-2-0'
p308
S's2'
p309
sS'2-2-0'
p310
S'22'
p311
sS'78-3-2'
p312
S'|3'
p313
sS'83-3-2'
p314
S'a3'
p315
sS'83-3-0'
p316
S'b3'
p317
sS'102-1-1'
p318
S'Q1'
p319
sS'98-2-0'
p320
S'R2'
p321
sS'102-1-0'
p322
S'T1'
p323
sS'98-1-0'
p324
S'P1'
p325
sS'98-1-1'
p326
S'U1'
p327
sS'56-1-0'
p328
S'\n1'
p329
sS'19-1-1'
p330
S'$1'
p331
sS'125-1-0'
p332
S'O1'
p333
sS'125-1-1'
p334
S'J1'
p335
sS'89-2-0'
p336
S'i2'
p337
sS'103-2-0'
p338
S'W2'
p339
sS'82-3-2'
p340
S'`3'
p341
sS'67-1-0'
p342
S'q1'
p343
sS'67-1-1'
p344
S't1'
p345
sS'88-2-0'
p346
S'h2'
p347
sS'2-1-0'
p348
S'01'
p349
sS'2-1-1'
p350
S'51'
p351
sS'115-3-2'
p352
S'A3'
p353
sS'66-1-1'
p354
S'u1'
p355
sS'115-3-0'
p356
S'B3'
p357
sS'87-3-2'
p358
S'e3'
p359
sS'87-3-0'
p360
S'f3'
p361
sS'91-3-0'
p362
S'j3'
p363
sS'66-2-0'
p364
S'r2'
p365
sS'20-3-2'
p366
S'&3'
p367
sS'20-3-0'
p368
S'%3'
p369
sS'86-1-1'
p370
S'a1'
p371
sS'86-1-0'
p372
S'd1'
p373
sS'66-1-0'
p374
S'p1'
p375
sS'12-2-0'
p376
S'<2'
p377
sS'84-3-0'
p378
S'e3'
p379
sS'84-3-2'
p380
S'f3'
p381
sS'114-2-0'
p382
S'B2'
p383
sS'88-1-1'
p384
S'o1'
p385
sS'88-1-0'
p386
S'j1'
p387
sS'73-3-2'
p388
S'{3'
p389
sS'73-3-0'
p390
S'x3'
p391
sS'69-3-0'
p392
S't3'
p393
sS'108-1-0'
p394
S'^1'
p395
sS'13-2-0'
p396
S'=2'
p397
sS'59-3-2'
p398
S'\t3'
p399
sS'59-3-0'
p400
S'\n3'
p401
sS'11-2-0'
p402
S';2'
p403
sS'83-1-0'
p404
S'a1'
p405
sS'83-1-1'
p406
S'd1'
p407
sS'19-2-0'
p408
S'#2'
p409
sS'101-2-0'
p410
S'U2'
p411
sS'100-1-1'
p412
S'S1'
p413
sS'100-1-0'
p414
S'V1'
p415
sS'101-3-0'
p416
S'T3'
p417
sS'101-3-2'
p418
S'W3'
p419
sS'112-3-0'
p420
S'A3'
p421
sS'112-3-2'
p422
S'B3'
p423
sS'83-2-0'
p424
S'c2'
p425
sS'56-3-0'
p426
S'\t3'
p427
sS'56-3-2'
p428
S'\n3'
p429
sS'67-3-0'
p430
S'r3'
p431
sS'67-3-2'
p432
S'q3'
p433
sS'94-3-0'
p434
S'o3'
p435
sS'11-1-1'
p436
S'<1'
p437
sS'11-1-0'
p438
S'91'
p439
sS'100-2-0'
p440
S'T2'
p441
sS'125-3-0'
p442
S'L3'
p443
sS'10-3-2'
p444
S'83'
p445
sS'10-3-0'
p446
S';3'
p447
sS'111-3-2'
p448
S']3'
p449
sS'111-3-0'
p450
S'^3'
p451
sS'65-1-0'
p452
S's1'
p453
sS'65-1-1'
p454
S'v1'
p455
sS'87-2-0'
p456
S'g2'
p457
sS'92-1-0'
p458
S'n1'
p459
sS'92-1-1'
p460
S'k1'
p461
sS'87-1-0'
p462
S'e1'
p463
sS'93-3-0'
p464
S'l3'
p465
sS'93-3-2'
p466
S'o3'
p467
sS'115-2-0'
p468
S'C2'
p469
sS'115-1-1'
p470
S'D1'
p471
sS'115-1-0'
p472
S'A1'
p473
sS'65-2-0'
p474
S'q2'
p475
sS'2-3-0'
p476
S'33'
p477
sS'2-3-2'
p478
S'03'
p479
sS'84-2-0'
p480
S'd2'
p481
sS'62-3-2'
p482
S'\x0c3'
p483
sS'86-2-0'
p484
S'f2'
p485
sS'113-2-0'
p486
S'A2'
p487
sS'103-1-0'
p488
S'U1'
p489
sS'103-1-1'
p490
S'P1'
p491
sS'84-1-1'
p492
S'c1'
p493
sS'84-1-0'
p494
S'f1'
p495
sS'92-2-0'
p496
S'l2'
p497
sS'89-1-0'
p498
S'k1'
p499
sS'89-1-1'
p500
S'n1'
p501
sS'89-3-0'
p502
S'h3'
p503
sS'89-3-2'
p504
S'k3'
p505
sS'17-3-0'
p506
S' 3'
p507
sS'17-3-2'
p508
S'#3'
p509
sS'12-1-0'
p510
S'>1'
p511
sS'101-1-0'
p512
S'W1'
p513
sS'101-1-1'
p514
S'R1'
p515
sS'18-3-0'
p516
S'#3'
p517
sS'68-1-1'
p518
S's1'
p519
sS'68-1-0'
p520
S'v1'
p521
sS'85-2-0'
p522
S'e2'
p523
sS'113-1-1'
p524
S'F1'
p525
sS'113-1-0'
p526
S'C1'
p527
sS'85-1-0'
p528
S'g1'
p529
sS'85-1-1'
p530
S'b1'
p531
sS'112-1-0'
p532
S'B1'
p533
sS'112-1-1'
p534
S'G1'
p535
sS'112-2-0'
p536
S'@2'
p537
sS'48-3-1'
p538
S'\x0c3'
p539
sS'68-2-0'
p540
S't2'
p541
sS'12-1-1'
p542
S';1'
p543
sS'3-3-0'
p544
S'23'
p545
sS'3-3-2'
p546
S'13'
p547
sS'91-1-1'
p548
S'l1'
p549
sS'91-1-0'
p550
S'i1'
p551
sS'11-3-2'
p552
S'93'
p553
sS'11-3-0'
p554
S':3'
p555
sS'71-3-0'
p556
S'v3'
p557
sS'71-3-2'
p558
S'u3'
p559
sS'120-3-2'
p560
S'J3'
p561
sS'120-3-0'
p562
S'I3'
p563
sS'13-1-1'
p564
S':1'
p565
sS'13-1-0'
p566
S'?1'
p567
sS'100-3-0'
p568
S'U3'
p569
sS'100-3-2'
p570
S'V3'
p571
sS'91-2-0'
p572
S'k2'
p573
sS'93-1-1'
p574
S'j1'
p575
sS'93-1-0'
p576
S'o1'
p577
sS'93-2-0'
p578
S'm2'
p579
sS'102-3-2'
p580
S'T3'
p581
sS'102-3-0'
p582
S'W3'
p583
sS'19-3-2'
p584
S'!3'
p585
sS'16-1-0'
p586
S'"1'
p587
sS'19-3-0'
p588
S'"3'
p589
sS'122-1-0'
p590
S'H1'
p591
sS'122-3-0'
p592
S'K3'
p593
sS'30-2-0'
p594
S'.2'
p595
sS'26-3-0'
p596
S'+3'
p597
sS'26-3-2'
p598
S'(3'
p599
sS'108-2-0'
p600
S'\\2'
p601
sS'88-3-2'
p602
S'j3'
p603
sS'4-3-2'
p604
S'63'
p605
sS'113-3-0'
p606
S'@3'
p607
sS'72-3-0'
p608
S'y3'
p609
sS'113-3-2'
p610
S'C3'
p611
sS'103-3-2'
p612
S'U3'
p613
sS'103-3-0'
p614
S'V3'
p615
sS'6-1-1'
p616
S'11'
p617
sS'76-2-0'
p618
S'|2'
p619
sS'6-2-0'
p620
S'62'
p621
sS'76-1-0'
p622
S'~1'
p623
sS'76-1-1'
p624
S'{1'
p625
sS'30-1-0'
p626
S',1'
p627
sS'30-1-1'
p628
S')1'
p629
sS'49-1-2'
p630
S'\x0c1'
p631
sS'127-3-0'
p632
S'N3'
p633
sS'109-2-0'
p634
S']2'
p635
sS'127-3-2'
p636
S'M3'
p637
sS'10-2-0'
p638
S':2'
p639
sS'10-1-0'
p640
S'81'
p641
sS'106-3-2'
p642
S'X3'
p643
sS'106-3-0'
p644
S'[3'
p645
sS'92-3-0'
p646
S'm3'
p647
sS'92-3-2'
p648
S'n3'
p649
sS'107-1-0'
p650
S'Y1'
p651
sS'107-1-1'
p652
S'\\1'
p653
sS'17-1-1'
p654
S'&1'
p655
sS'17-1-0'
p656
S'#1'
p657
sS'17-2-0'
p658
S'!2'
p659
sS'60-1-1'
p660
S'\x0b1'
p661
sS'111-1-1'
p662
S'X1'
p663
sS'70-2-0'
p664
S'v2'
p665
sS'105-3-0'
p666
S'X3'
p667
sS'85-3-2'
p668
S'g3'
p669
sS'90-3-2'
p670
S'h3'
p671
sS'68-3-2'
p672
S'v3'
p673
sS'90-3-0'
p674
S'k3'
p675
sS'68-3-0'
p676
S'u3'
p677
sS'16-2-0'
p678
S' 2'
p679
sS'5-3-2'
p680
S'73'
p681
sS'109-1-0'
p682
S'_1'
p683
sS'109-1-1'
p684
S'Z1'
p685
sS'111-2-0'
p686
S'_2'
p687
sS'57-3-2'
p688
S'\x0b3'
p689
sS'86-3-2'
p690
S'd3'
p691
sS'60-2-0'
p692
S'\x0c2'
p693
sS'86-3-0'
p694
S'g3'
p695
sS'29-3-0'
p696
S',3'
p697
sS'3-2-0'
p698
S'32'
p699
sS'30-3-0'
p700
S'/3'
p701
sS'3-1-1'
p702
S'41'
p703
sS'3-1-0'
p704
S'11'
p705
sS'99-1-1'
p706
S'T1'
p707
sS'99-1-0'
p708
S'Q1'
p709
sS'124-3-0'
p710
S'M3'
p711
sS'91-3-2'
p712
S'i3'
p713
sS'70-1-0'
p714
S't1'
p715
sS'70-1-1'
p716
S'q1'
p717
sS'6-3-0'
p718
S'73'
p719
sS'120-2-0'
p720
S'H2'
p721
sS'121-2-0'
p722
S'I2'
p723
sS'120-1-1'
p724
S'O1'
p725
sS'120-1-0'
p726
S'J1'
p727
sS'62-1-1'
p728
S'\t1'
p729
sS'29-2-0'
p730
S'-2'
p731
sS'124-3-2'
p732
S'N3'
p733
sS'71-1-1'
p734
S'p1'
p735
sS'71-1-0'
p736
S'u1'
p737
sS'94-3-2'
p738
S'l3'
p739
sS'99-2-0'
p740
S'S2'
p741
sS'71-2-0'
p742
S'w2'
p743
sS'62-1-0'
p744
S'\x0c1'
p745
sS'95-1-1'
p746
S'h1'
p747
sS'95-1-0'
p748
S'm1'
p749
sS'102-2-0'
p750
S'V2'
p751
sS'69-1-0'
p752
S'w1'
p753
sS'69-1-1'
p754
S'r1'
p755
sS'126-2-0'
p756
S'N2'
p757
sS'97-3-0'
p758
S'P3'
p759
sS'97-3-2'
p760
S'S3'
p761
sS'116-3-0'
p762
S'E3'
p763
sS'116-3-2'
p764
S'F3'
p765
sS'4-2-0'
p766
S'42'
p767
sS'26-2-0'
p768
S'*2'
p769
sS'29-3-2'
p770
S'/3'
p771
sS'24-2-0'
p772
S'(2'
p773
sS'69-2-0'
p774
S'u2'
p775
sS'7-2-0'
p776
S'72'
p777
sS'30-3-2'
p778
S',3'
p779
sS'90-1-0'
p780
S'h1'
p781
sS'90-1-1'
p782
S'm1'
p783
sS'6-3-2'
p784
S'43'
p785
sS'4-1-0'
p786
S'61'
p787
sS'4-1-1'
p788
S'31'
p789
sS'106-2-0'
p790
S'Z2'
p791
sS'106-1-1'
p792
S']1'
p793
sS'106-1-0'
p794
S'X1'
p795
sS'126-1-1'
p796
S'I1'
p797
sS'126-1-0'
p798
S'L1'
p799
sS'127-1-0'
p800
S'M1'
p801
sS'127-1-1'
p802
S'H1'
p803
sS'127-2-0'
p804
S'O2'
p805
sS'105-2-0'
p806
S'Y2'
p807
sS'90-2-0'
p808
S'j2'
p809
sS'107-2-0'
p810
S'[2'
p811
sS'55-2-2'
p812
S'\x0c2'
p813
sS'70-3-2'
p814
S't3'
p815
sS'60-3-0'
p816
S'\r3'
p817
sS'105-1-0'
p818
S'[1'
p819
sS'105-1-1'
p820
S'^1'
p821
sS'16-3-0'
p822
S'!3'
p823
sS'24-1-0'
p824
S'*1'
p825
sS'16-3-2'
p826
S'"3'
p827
sS'57-1-0'
p828
S'\x0b1'
p829
sS'57-2-0'
p830
S'\t2'
p831
sS'7-3-0'
p832
S'63'
p833
sS'108-1-1'
p834
S'[1'
p835
sS'7-3-2'
p836
S'53'
p837
sS'108-3-0'
p838
S']3'
p839
sS'7-1-1'
p840
S'01'
p841
sS'7-1-0'
p842
S'51'
p843
sS'25-3-2'
p844
S'+3'
p845
sS'25-3-0'
p846
S'(3'
p847
sS'0-3-2'
p848
S'23'
p849
sS'99-3-2'
p850
S'Q3'
p851
sS'0-3-0'
p852
S'13'
p853
sS'99-3-0'
p854
S'R3'
p855
sS'104-2-0'
p856
S'X2'
p857
sS'94-1-1'
p858
S'i1'
p859
sS'104-1-1'
p860
S'_1'
p861
sS'104-1-0'
p862
S'Z1'
p863
sS'72-2-0'
p864
S'x2'
p865
sS'63-1-0'
p866
S'\r1'
p867
sS'63-3-2'
p868
S'\r3'
p869
sS'97-2-0'
p870
S'Q2'
p871
sS'117-2-0'
p872
S'E2'
p873
sS'95-2-0'
p874
S'o2'
p875
sS'114-1-0'
p876
S'@1'
p877
sS'126-3-0'
p878
S'O3'
p879
sS'126-3-2'
p880
S'L3'
p881
sS'16-1-1'
p882
S"'1"
p883
sS'97-1-1'
p884
S'V1'
p885
sS'97-1-0'
p886
S'S1'
p887
sS'13-3-2'
p888
S'?3'
p889
sS'116-2-0'
p890
S'D2'
p891
sS'119-3-2'
p892
S'E3'
p893
sS'119-3-0'
p894
S'F3'
p895
sS'22-3-0'
p896
S"'3"
p897
sS'22-3-2'
p898
S'$3'
p899
sS'118-1-0'
p900
S'D1'
p901
sS'118-1-1'
p902
S'A1'
p903
sS'64-2-0'
p904
S'p2'
p905
sS'124-1-1'
p906
S'K1'
p907
sS'124-1-0'
p908
S'N1'
p909
sS'27-2-0'
p910
S'+2'
p911
sS'96-2-0'
p912
S'P2'
p913
sS'70-3-0'
p914
S'w3'
p915
sS'14-1-0'
p916
S'<1'
p917
sS'14-1-1'
p918
S'91'
p919
sS'96-1-0'
p920
S'R1'
p921
sS'96-1-1'
p922
S'W1'
p923
sS'116-1-0'
p924
S'F1'
p925
sS'116-1-1'
p926
S'C1'
p927
sS'18-3-2'
p928
S' 3'
p929
sS'124-2-0'
p930
S'L2'
p931
sS'75-3-0'
p932
S'z3'
p933
sS'75-3-2'
p934
S'y3'
p935
sS'14-2-0'
p936
S'>2'
p937
sS'27-1-0'
p938
S')1'
p939
sS'27-1-1'
p940
S',1'
p941
sS'8-1-1'
p942
S'?1'
p943
sS'15-1-1'
p944
S'81'
p945
sS'15-1-0'
p946
S'=1'
p947
sS'28-1-1'
p948
S'+1'
p949
sS'28-1-0'
p950
S'.1'
p951
sS'15-2-0'
p952
S'?2'
p953
sS'110-3-0'
p954
S'_3'
p955
sS'125-3-2'
p956
S'O3'
p957
sS'24-3-2'
p958
S'*3'
p959
sS'24-3-0'
p960
S')3'
p961
sS'29-1-0'
p962
S'/1'
p963
sS'29-1-1'
p964
S'*1'
p965
sS'26-1-1'
p966
S'-1'
p967
sS'26-1-0'
p968
S'(1'
p969
sS'64-1-1'
p970
S'w1'
p971
sS'64-1-0'
p972
S'r1'
p973
sS'24-1-1'
p974
S'/1'
p975
sS'5-2-0'
p976
S'52'
p977
sS'14-3-0'
p978
S'?3'
p979
sS'0-2-0'
p980
S'02'
p981
sS'104-3-0'
p982
S'Y3'
p983
sS'104-3-2'
p984
S'Z3'
p985
sS'28-2-0'
p986
S',2'
p987
sS'72-3-2'
p988
S'z3'
p989
sS'50-2-1'
p990
S'\x0c2'
p991
sS'4-3-0'
p992
S'53'
p993
sS'23-1-0'
p994
S'%1'
p995
sS'23-1-1'
p996
S' 1'
p997
sS'123-3-0'
p998
S'J3'
p999
sS'123-3-2'
p1000
S'I3'
p1001
sS'107-3-2'
p1002
S'Y3'
p1003
sS'107-3-0'
p1004
S'Z3'
p1005
sS'8-3-2'
p1006
S':3'
p1007
sS'8-3-0'
p1008
S'93'
p1009
sa.